target datalayout = "e-m:e-p270:32:32-p271:32:32-p272:64:64-i64:64-i128:128-f80:128-n8:16:32:64-S128"
target triple = "x86_64-pc-linux-gnu"

%struct.cdf_classid_t = type { i32, [2 x i16], [2 x i8], [6 x i8] }

@.str.3 = private unnamed_addr constant [49 x i8] c"%.8x-%.4x-%.4x-%.2x%.2x-%.2x%.2x%.2x%.2x%.2x%.2x\00", align 1

; Function Attrs: nounwind uwtable
define hidden i32 @cdf_print_classid(ptr noundef %0, i64 noundef %1, ptr noundef %2) #0 {
  %4 = alloca ptr, align 8
  %5 = alloca i64, align 8
  %6 = alloca ptr, align 8
  store ptr %0, ptr %4, align 8, !tbaa !9
  store i64 %1, ptr %5, align 8, !tbaa !14
  store ptr %2, ptr %6, align 8, !tbaa !16
  %7 = load ptr, ptr %4, align 8, !tbaa !9
  %8 = load i64, ptr %5, align 8, !tbaa !14
  %9 = load ptr, ptr %6, align 8, !tbaa !16
  %10 = getelementptr inbounds nuw %struct.cdf_classid_t, ptr %9, i32 0, i32 0
  %11 = load i32, ptr %10, align 4, !tbaa !41
  %12 = load ptr, ptr %6, align 8, !tbaa !16
  %13 = getelementptr inbounds nuw %struct.cdf_classid_t, ptr %12, i32 0, i32 1
  %14 = getelementptr inbounds [2 x i16], ptr %13, i64 0, i64 0
  %15 = load i16, ptr %14, align 4, !tbaa !4
  %16 = zext i16 %15 to i32
  %17 = load ptr, ptr %6, align 8, !tbaa !16
  %18 = getelementptr inbounds nuw %struct.cdf_classid_t, ptr %17, i32 0, i32 1
  %19 = getelementptr inbounds [2 x i16], ptr %18, i64 0, i64 1
  %20 = load i16, ptr %19, align 2, !tbaa !4
  %21 = zext i16 %20 to i32
  %22 = load ptr, ptr %6, align 8, !tbaa !16
  %23 = getelementptr inbounds nuw %struct.cdf_classid_t, ptr %22, i32 0, i32 2
  %24 = getelementptr inbounds [2 x i8], ptr %23, i64 0, i64 0
  %25 = load i8, ptr %24, align 4, !tbaa !8
  %26 = zext i8 %25 to i32
  %27 = load ptr, ptr %6, align 8, !tbaa !16
  %28 = getelementptr inbounds nuw %struct.cdf_classid_t, ptr %27, i32 0, i32 2
  %29 = getelementptr inbounds [2 x i8], ptr %28, i64 0, i64 1
  %30 = load i8, ptr %29, align 1, !tbaa !8
  %31 = zext i8 %30 to i32
  %32 = load ptr, ptr %6, align 8, !tbaa !16
  %33 = getelementptr inbounds nuw %struct.cdf_classid_t, ptr %32, i32 0, i32 3
  %34 = getelementptr inbounds [6 x i8], ptr %33, i64 0, i64 0
  %35 = load i8, ptr %34, align 2, !tbaa !8
  %36 = zext i8 %35 to i32
  %37 = load ptr, ptr %6, align 8, !tbaa !16
  %38 = getelementptr inbounds nuw %struct.cdf_classid_t, ptr %37, i32 0, i32 3
  %39 = getelementptr inbounds [6 x i8], ptr %38, i64 0, i64 1
  %40 = load i8, ptr %39, align 1, !tbaa !8
  %41 = zext i8 %40 to i32
  %42 = load ptr, ptr %6, align 8, !tbaa !16
  %43 = getelementptr inbounds nuw %struct.cdf_classid_t, ptr %42, i32 0, i32 3
  %44 = getelementptr inbounds [6 x i8], ptr %43, i64 0, i64 2
  %45 = load i8, ptr %44, align 2, !tbaa !8
  %46 = zext i8 %45 to i32
  %47 = load ptr, ptr %6, align 8, !tbaa !16
  %48 = getelementptr inbounds nuw %struct.cdf_classid_t, ptr %47, i32 0, i32 3
  %49 = getelementptr inbounds [6 x i8], ptr %48, i64 0, i64 3
  %50 = load i8, ptr %49, align 1, !tbaa !8
  %51 = zext i8 %50 to i32
  %52 = load ptr, ptr %6, align 8, !tbaa !16
  %53 = getelementptr inbounds nuw %struct.cdf_classid_t, ptr %52, i32 0, i32 3
  %54 = getelementptr inbounds [6 x i8], ptr %53, i64 0, i64 4
  %55 = load i8, ptr %54, align 2, !tbaa !8
  %56 = zext i8 %55 to i32
  %57 = load ptr, ptr %6, align 8, !tbaa !16
  %58 = getelementptr inbounds nuw %struct.cdf_classid_t, ptr %57, i32 0, i32 3
  %59 = getelementptr inbounds [6 x i8], ptr %58, i64 0, i64 5
  %60 = load i8, ptr %59, align 1, !tbaa !8
  %61 = zext i8 %60 to i32
  %62 = call i32 (ptr, i64, ptr, ...) @ap_php_snprintf(ptr noundef %7, i64 noundef %8, ptr noundef @.str.3, i32 noundef %11, i32 noundef %16, i32 noundef %21, i32 noundef %26, i32 noundef %31, i32 noundef %36, i32 noundef %41, i32 noundef %46, i32 noundef %51, i32 noundef %56, i32 noundef %61)
  ret i32 %62
}